
<packet>

  <proto name="geninfo" pos="0" showname="General information" size="182">
    <field name="num" pos="0" show="147" showname="Number" value="93" size="182"/>
    <field name="len" pos="0" show="182" showname="Frame Length" value="b6" size="182"/>
    <field name="caplen" pos="0" show="182" showname="Captured Length" value="b6" size="182"/>
    <field name="timestamp" pos="0" show="Dec  8, 2020 18:18:39.606311000 GMT" showname="Captured Time" value="1607451519.606311000" size="182"/>
  </proto>

  <proto name="frame" showname="Frame 147: 182 bytes on wire (1456 bits), 182 bytes captured (1456 bits)" size="182" pos="0">
    <field name="frame.encap_type" showname="Encapsulation type: Ethernet (1)" size="0" pos="0" show="1"/>
  </proto>

  <proto name="eth" showname="Ethernet II, Src: Solarfla_07:fa:a9 (00:0f:53:07:fa:a9), Dst: IPv4mcast_1f:05 (01:00:5e:00:1f:05)" size="14" pos="0">
    <field name="eth.dst" showname="Destination: IPv4mcast_1f:05 (01:00:5e:00:1f:05)" size="6" pos="0" show="01:00:5e:00:1f:05" value="01005e001f05">
      <field name="eth.dst_resolved" showname="Destination (resolved): IPv4mcast_1f:05" hide="yes" size="6" pos="0" show="IPv4mcast_1f:05" value="01005e001f05"/>
    </field>
  </proto>

  <proto name="ip" showname="Internet Protocol Version 4, Src: 25.25.40.134, Dst: 224.0.31.5" size="20" pos="14">
    <field name="ip.version" showname="0100 .... = Version: 4" size="1" pos="14" show="4" value="45"/>
    <field name="ip.hdr_len" showname=".... 0101 = Header Length: 20 bytes (5)" size="1" pos="14" show="20" value="45"/>
 
  </proto>

  <proto name="udp" showname="User Datagram Protocol, Src Port: 42972, Dst Port: 14314" size="8" pos="34">
    <field name="udp.srcport" showname="Source Port: 42972" size="2" pos="34" show="42972" value="a7dc"/>
    <field name="udp.dstport" showname="Destination Port: 14314" size="2" pos="36" show="14314" value="37ea"/>
  </proto>

  <proto name="cme.futures.mdp3.sbe.v1.5.lua" showname="Cme Futures Mdp3 Sbe 1.5 (140 Bytes)" size="140" pos="42">
    <field name="cme.futures.mdp3.sbe.v1.5.binarypacketheader" showname="Binary Packet Header: " size="12" pos="42" show="" value="35b5b700bf639d250a57b013">
      <field name="cme.futures.mdp3.sbe.v1.5.messagesequencenumber" showname="Message Sequence Number: 12039477" size="4" pos="42" show="12039477" value="35b5b700"/>
      <field name="cme.futures.mdp3.sbe.v1.5.sendingtime" showname="Sending Time: 1418729583714067391" size="8" pos="46" show="1418729583714067391" value="bf639d250a57b013"/>
    </field>
    <field name="cme.futures.mdp3.sbe.v1.5.message" showname="Message: " size="40" pos="54" show="">
      <field name="cme.futures.mdp3.sbe.v1.5.messagesize" showname="Message Size: 40" size="2" pos="54" show="40" value="2800"/>
      <field name="cme.futures.mdp3.sbe.v1.5.messageheader" showname="Message Header: " size="8" pos="56" show="" value="0b00250001000500">
        <field name="cme.futures.mdp3.sbe.v1.5.blocklength" showname="Block Length: 11" size="2" pos="56" show="11" value="0b00"/>
        <field name="cme.futures.mdp3.sbe.v1.5.templateid" showname="Template Id: Md Incremental Refresh Volume (37)" size="2" pos="58" show="37" value="2500"/>
        <field name="cme.futures.mdp3.sbe.v1.5.schemaid" showname="Schema Id: 1" size="2" pos="60" show="1" value="0100"/>
        <field name="cme.futures.mdp3.sbe.v1.5.version" showname="Version: 5" size="2" pos="62" show="5" value="0500"/>
      </field>
      <field name="cme.futures.mdp3.sbe.v1.5.mdincrementalrefreshvolume37" showname="Md Incremental Refresh Volume 37: " size="30" pos="64" show="">
        <field name="cme.futures.mdp3.sbe.v1.5.transacttime" showname="Transact Time: 1418729583713704661" size="8" pos="64" show="1418729583713704661" value="d5da97250a57b013"/>
        <field name="cme.futures.mdp3.sbe.v1.5.matcheventindicator" showname="Match Event Indicator: Last Volume Msg" size="1" pos="72" show="Last Volume Msg" value="02">
          <field name="cme.futures.mdp3.sbe.v1.5.endofevent" showname="0... .... = End Of Event: No (0)" size="1" pos="72" show="0" value="0" unmaskedvalue="02"/>
          <field name="cme.futures.mdp3.sbe.v1.5.reserved" showname=".0.. .... = Reserved: No (0)" size="1" pos="72" show="0" value="0" unmaskedvalue="02"/>
          <field name="cme.futures.mdp3.sbe.v1.5.recoverymsg" showname="..0. .... = Recovery Msg: No (0)" size="1" pos="72" show="0" value="0" unmaskedvalue="02"/>
          <field name="cme.futures.mdp3.sbe.v1.5.lastimpliedmsg" showname="...0 .... = Last Implied Msg: No (0)" size="1" pos="72" show="0" value="0" unmaskedvalue="02"/>
          <field name="cme.futures.mdp3.sbe.v1.5.laststatsmsg" showname=".... 0... = Last Stats Msg: No (0)" size="1" pos="72" show="0" value="0" unmaskedvalue="02"/>
          <field name="cme.futures.mdp3.sbe.v1.5.lastquotemsg" showname=".... .0.. = Last Quote Msg: No (0)" size="1" pos="72" show="0" value="0" unmaskedvalue="02"/>
          <field name="cme.futures.mdp3.sbe.v1.5.lastvolumemsg" showname=".... ..1. = Last Volume Msg: Yes (1)" size="1" pos="72" show="1" value="1" unmaskedvalue="02"/>
          <field name="cme.futures.mdp3.sbe.v1.5.lasttrademsg" showname=".... ...0 = Last Trade Msg: No (0)" size="1" pos="72" show="0" value="0" unmaskedvalue="02"/>
        </field>
        <field name="cme.futures.mdp3.sbe.v1.5.padding2" showname="Padding 2: 00 00" size="2" pos="73" show="30:30" value="0000"/>
        <field name="cme.futures.mdp3.sbe.v1.5.mdincrementalrefreshvolumegroups" showname="M D Incremental Refresh Volume Groups: " size="19" pos="75" show="" >
          <field name="cme.futures.mdp3.sbe.v1.5.groupsize" showname="Group Size: " size="3" pos="75" show="" value="100001">
            <field name="cme.futures.mdp3.sbe.v1.5.blocklength" showname="Block Length: 16" size="2" pos="75" show="16" value="1000"/>
            <field name="cme.futures.mdp3.sbe.v1.5.numingroup" showname="Num In Group: 1" size="1" pos="77" show="1" value="01"/>
          </field>
          <field name="cme.futures.mdp3.sbe.v1.5.mdincrementalrefreshvolumegroup" showname="M D Incremental Refresh Volume Group: " size="16" pos="78" show="">
            <field name="cme.futures.mdp3.sbe.v1.5.mdentrysize" showname="Md Entry Size: 150971" size="4" pos="78" show="150971" value="bb4d0200"/>
            <field name="cme.futures.mdp3.sbe.v1.5.securityid" showname="Security Id: 18620" size="4" pos="82" show="18620" value="bc480000"/>
            <field name="cme.futures.mdp3.sbe.v1.5.rptseq" showname="Rpt Seq: 3311234" size="4" pos="86" show="3311234" value="82863200"/>
            <field name="cme.futures.mdp3.sbe.v1.5.mdupdateaction" showname="Md Update Action: New (0)" size="1" pos="90" show="0" value="00"/>
            <field name="cme.futures.mdp3.sbe.v1.5.padding3" showname="Padding 3: 00 00 00" size="3" pos="91" show="30:30:20" value="000000"/>
          </field>
        </field>
      </field>
    </field>
    <field name="cme.futures.mdp3.sbe.v1.5.message" showname="Message: " size="88" pos="94" show="">

      <field name="cme.futures.mdp3.sbe.v1.5.messagesize" showname="Message Size: 88" size="2" pos="94" show="88" value="5800"/>
      
      <field name="cme.futures.mdp3.sbe.v1.5.messageheader" showname="Message Header: " size="8" pos="96" show="" value="0b00200001000500">
        <field name="cme.futures.mdp3.sbe.v1.5.blocklength" showname="Block Length: 11" size="2" pos="96" show="11" value="0b00"/>
        <field name="cme.futures.mdp3.sbe.v1.5.templateid" showname="Template Id: Md Incremental Refresh Book (32)" size="2" pos="98" show="32" value="2000"/>
        <field name="cme.futures.mdp3.sbe.v1.5.schemaid" showname="Schema Id: 1" size="2" pos="100" show="1" value="0100"/>
        <field name="cme.futures.mdp3.sbe.v1.5.version" showname="Version: 5" size="2" pos="102" show="5" value="0500"/>
      </field>

      <field name="cme.futures.mdp3.sbe.v1.5.mdincrementalrefreshbook32" showname="Md Incremental Refresh Book 32: " size="78" pos="104" show="">
        <field name="cme.futures.mdp3.sbe.v1.5.transacttime" showname="Transact Time: 1418729583713704661" size="8" pos="104" show="1418729583713704661" value="d5da97250a57b013"/>
        <field name="cme.futures.mdp3.sbe.v1.5.matcheventindicator" showname="Match Event Indicator: End Of Event|Last Quote Msg" size="1" pos="112" show="End Of Event|Last Quote Msg" value="84">
          <field name="cme.futures.mdp3.sbe.v1.5.endofevent" showname="1... .... = End Of Event: Yes (1)" size="1" pos="112" show="1" value="1" unmaskedvalue="84"/>
          <field name="cme.futures.mdp3.sbe.v1.5.reserved" showname=".0.. .... = Reserved: No (0)" size="1" pos="112" show="0" value="0" unmaskedvalue="84"/>
          <field name="cme.futures.mdp3.sbe.v1.5.recoverymsg" showname="..0. .... = Recovery Msg: No (0)" size="1" pos="112" show="0" value="0" unmaskedvalue="84"/>
          <field name="cme.futures.mdp3.sbe.v1.5.lastimpliedmsg" showname="...0 .... = Last Implied Msg: No (0)" size="1" pos="112" show="0" value="0" unmaskedvalue="84"/>
          <field name="cme.futures.mdp3.sbe.v1.5.laststatsmsg" showname=".... 0... = Last Stats Msg: No (0)" size="1" pos="112" show="0" value="0" unmaskedvalue="84"/>
          <field name="cme.futures.mdp3.sbe.v1.5.lastquotemsg" showname=".... .1.. = Last Quote Msg: Yes (1)" size="1" pos="112" show="1" value="1" unmaskedvalue="84"/>
          <field name="cme.futures.mdp3.sbe.v1.5.lastvolumemsg" showname=".... ..0. = Last Volume Msg: No (0)" size="1" pos="112" show="0" value="0" unmaskedvalue="84"/>
          <field name="cme.futures.mdp3.sbe.v1.5.lasttrademsg" showname=".... ...0 = Last Trade Msg: No (0)" size="1" pos="112" show="0" value="0" unmaskedvalue="84"/>
        </field>

        <field name="cme.futures.mdp3.sbe.v1.5.mdincrementalrefreshbookgroups" showname="M D Incremental Refresh Book Groups: " size="67" pos="115" show="">
          <field name="cme.futures.mdp3.sbe.v1.5.groupsize" showname="Group Size: " size="3" pos="115" show="" value="200002">
            <field name="cme.futures.mdp3.sbe.v1.5.blocklength" showname="Block Length: 32" size="2" pos="115" show="32" value="2000"/>
            <field name="cme.futures.mdp3.sbe.v1.5.numingroup" showname="Num In Group: 2" size="1" pos="117" show="2" value="02"/>
          </field>
          <field name="cme.futures.mdp3.sbe.v1.5.mdincrementalrefreshbookgroup" showname="M D Incremental Refresh Book Group: " size="32" pos="118" show="">
            <field name="cme.futures.mdp3.sbe.v1.5.mdentrypx" showname="Md Entry Px: 8606" size="8" pos="118" show="86060000000" value="0063930914000000"/>
            <field name="cme.futures.mdp3.sbe.v1.5.mdentrysize" showname="Md Entry Size: 11" size="4" pos="126" show="11" value="0b000000"/>
            <field name="cme.futures.mdp3.sbe.v1.5.securityid" showname="Security Id: 18620" size="4" pos="130" show="18620" value="bc480000"/>
            <field name="cme.futures.mdp3.sbe.v1.5.rptseq" showname="Rpt Seq: 3311235" size="4" pos="134" show="3311235" value="83863200"/>
            <field name="cme.futures.mdp3.sbe.v1.5.numberoforders" showname="Number Of Orders: 4" size="4" pos="138" show="4" value="04000000"/>
            <field name="cme.futures.mdp3.sbe.v1.5.mdpricelevel" showname="Md Price Level: 1" size="1" pos="142" show="1" value="01"/>
            <field name="cme.futures.mdp3.sbe.v1.5.mdupdateaction" showname="Md Update Action: Delete (2)" size="1" pos="143" show="2" value="02"/>
            <field name="cme.futures.mdp3.sbe.v1.5.mdentrytype" showname="Md Entry Type: Bid (0)" size="1" pos="144" show="0" value="30"/>
            <field name="cme.futures.mdp3.sbe.v1.5.padding5" showname="Padding 5: 00 00 00 00 00" size="5" pos="145" show="30:30:20:30:30" value="0000000000"/>
          </field>

          <field name="cme.futures.mdp3.sbe.v1.5.mdincrementalrefreshbookgroup" showname="M D Incremental Refresh Book Group: " size="32" pos="150" show="">
            <field name="cme.futures.mdp3.sbe.v1.5.mdentrypx" showname="Md Entry Px: 8596" size="8" pos="150" show="85960000000" value="00829d0314000000"/>
            <field name="cme.futures.mdp3.sbe.v1.5.mdentrysize" showname="Md Entry Size: 203" size="4" pos="158" show="203" value="cb000000"/>
            <field name="cme.futures.mdp3.sbe.v1.5.securityid" showname="Security Id: 18620" size="4" pos="162" show="18620" value="bc480000"/>
            <field name="cme.futures.mdp3.sbe.v1.5.rptseq" showname="Rpt Seq: 3311236" size="4" pos="166" show="3311236" value="84863200"/>
            <field name="cme.futures.mdp3.sbe.v1.5.numberoforders" showname="Number Of Orders: 22" size="4" pos="170" show="22" value="16000000"/>
            <field name="cme.futures.mdp3.sbe.v1.5.mdpricelevel" showname="Md Price Level: 10" size="1" pos="174" show="10" value="0a"/>
            <field name="cme.futures.mdp3.sbe.v1.5.mdupdateaction" showname="Md Update Action: New (0)" size="1" pos="175" show="0" value="00"/>
            <field name="cme.futures.mdp3.sbe.v1.5.mdentrytype" showname="Md Entry Type: Bid (0)" size="1" pos="176" show="0" value="30"/>
            <field name="cme.futures.mdp3.sbe.v1.5.padding5" showname="Padding 5: 00 00 00 00 00" size="5" pos="177" show="30:30:20:30:30" value="0000000000"/>
          </field>
        </field>

      </field>
    </field>
  </proto>
</packet>

